target datalayout = "e-m:e-p270:32:32-p271:32:32-p272:64:64-i64:64-i128:128-f80:128-n8:16:32:64-S128"
target triple = "x86_64-pc-linux-gnu"

%struct.Sfm_Dec_t_ = type { ptr, ptr, ptr, ptr, ptr, %struct.Vec_Int_t_, %struct.Vec_Wrd_t_, %struct.Vec_Wec_t_, %struct.Vec_Ptr_t_, i32, i32, i32, i32, [4 x i32], [4 x i32], i32, i32, i32, i32, i32, i32, i32, i32, i32, ptr, i64, %struct.Vec_Int_t_, %struct.Vec_Int_t_, %struct.Vec_Wec_t_, %struct.Vec_Int_t_, %struct.Vec_Int_t_, %struct.Vec_Int_t_, %struct.Vec_Int_t_, %struct.Vec_Wrd_t_, %struct.Vec_Wrd_t_, %struct.Vec_Ptr_t_, %struct.Vec_Ptr_t_, ptr, %struct.Vec_Wec_t_, [2 x %struct.Vec_Int_t_], [2 x %struct.Vec_Wrd_t_], [2 x i32], [2 x i32], i32, i32, [8 x [4 x i64]], [8 x ptr], [8 x ptr], %struct.Vec_Int_t_, %struct.Vec_Int_t_, %struct.Vec_Int_t_, %struct.Vec_Int_t_, %struct.Vec_Int_t_, %struct.Vec_Int_t_, %struct.Vec_Int_t_, [4 x i64], i32, i64, i64, i64, i64, i64, i64, i64, i64, i64, i64, i64, i32, i32, i32, i32, i32, i32, i32, i32, i32, i32, i32, i32, i32, i32, i32, i32, i32, i32, i32, i32, i32, i64, i64, [9 x i32], [9 x i32] }
%struct.Vec_Wrd_t_ = type { i32, i32, ptr }
%struct.Vec_Ptr_t_ = type { i32, i32, ptr }
%struct.Vec_Wec_t_ = type { i32, i32, ptr }
%struct.Vec_Int_t_ = type { i32, i32, ptr }

; Function Attrs: inlinehint nounwind uwtable
define internal i32 @Abc_MinInt(i32 noundef %0, i32 noundef %1) #5 {
  %3 = alloca i32, align 4
  %4 = alloca i32, align 4
  store i32 %0, ptr %3, align 4, !tbaa !79
  store i32 %1, ptr %4, align 4, !tbaa !79
  %5 = load i32, ptr %3, align 4, !tbaa !79
  %6 = load i32, ptr %4, align 4, !tbaa !79
  %7 = icmp slt i32 %5, %6
  br i1 %7, label %8, label %10

8:                                                ; preds = %2
  %9 = load i32, ptr %3, align 4, !tbaa !79
  br label %12

10:                                               ; preds = %2
  %11 = load i32, ptr %4, align 4, !tbaa !79
  br label %12

12:                                               ; preds = %10, %8
  %13 = phi i32 [ %9, %8 ], [ %11, %10 ]
  ret i32 %13
}

; Function Attrs: nounwind uwtable
define i32 @Sfm_DecFindBestVar2(ptr noundef %0, ptr noundef %1) #0 {
  %3 = alloca ptr, align 8
  %4 = alloca ptr, align 8
  %5 = alloca [2 x [2 x i32]], align 16
  %6 = alloca i32, align 4
  %7 = alloca i32, align 4
  %8 = alloca i32, align 4
  %9 = alloca i32, align 4
  store ptr %0, ptr %3, align 8, !tbaa !33
  store ptr %1, ptr %4, align 8, !tbaa !80
  call void @llvm.lifetime.start.p0(i64 16, ptr %5) #12
  call void @llvm.lifetime.start.p0(i64 4, ptr %6) #12
  call void @llvm.lifetime.start.p0(i64 4, ptr %7) #12
  store i32 -1, ptr %7, align 4, !tbaa !79
  call void @llvm.lifetime.start.p0(i64 4, ptr %8) #12
  store i32 1000000000, ptr %8, align 4, !tbaa !79
  call void @llvm.lifetime.start.p0(i64 4, ptr %9) #12
  store i32 0, ptr %6, align 4, !tbaa !79
  br label %10

10:                                               ; preds = %62, %2
  %11 = load i32, ptr %6, align 4, !tbaa !79
  %12 = load ptr, ptr %3, align 8, !tbaa !33
  %13 = getelementptr inbounds nuw %struct.Sfm_Dec_t_, ptr %12, i32 0, i32 15
  %14 = load i32, ptr %13, align 8, !tbaa !125
  %15 = icmp slt i32 %11, %14
  br i1 %15, label %16, label %65

16:                                               ; preds = %10
  %17 = load ptr, ptr %3, align 8, !tbaa !33
  %18 = load ptr, ptr %4, align 8, !tbaa !80
  %19 = load i32, ptr %6, align 4, !tbaa !79
  %20 = getelementptr inbounds [2 x [2 x i32]], ptr %5, i64 0, i64 0
  call void @Sfm_DecVarCost(ptr noundef %17, ptr noundef %18, i32 noundef %19, ptr noundef %20)
  %21 = getelementptr inbounds [2 x [2 x i32]], ptr %5, i64 0, i64 0
  %22 = getelementptr inbounds [2 x i32], ptr %21, i64 0, i64 0
  %23 = load i32, ptr %22, align 16, !tbaa !79
  %24 = getelementptr inbounds [2 x [2 x i32]], ptr %5, i64 0, i64 0
  %25 = getelementptr inbounds [2 x i32], ptr %24, i64 0, i64 1
  %26 = load i32, ptr %25, align 4, !tbaa !79
  %27 = icmp slt i32 %23, %26
  %28 = zext i1 %27 to i32
  %29 = getelementptr inbounds [2 x [2 x i32]], ptr %5, i64 0, i64 1
  %30 = getelementptr inbounds [2 x i32], ptr %29, i64 0, i64 0
  %31 = load i32, ptr %30, align 8, !tbaa !79
  %32 = getelementptr inbounds [2 x [2 x i32]], ptr %5, i64 0, i64 1
  %33 = getelementptr inbounds [2 x i32], ptr %32, i64 0, i64 1
  %34 = load i32, ptr %33, align 4, !tbaa !79
  %35 = icmp slt i32 %31, %34
  %36 = zext i1 %35 to i32
  %37 = icmp eq i32 %28, %36
  br i1 %37, label %38, label %39

38:                                               ; preds = %16
  br label %62

39:                                               ; preds = %16
  %40 = getelementptr inbounds [2 x [2 x i32]], ptr %5, i64 0, i64 0
  %41 = getelementptr inbounds [2 x i32], ptr %40, i64 0, i64 0
  %42 = load i32, ptr %41, align 16, !tbaa !79
  %43 = getelementptr inbounds [2 x [2 x i32]], ptr %5, i64 0, i64 0
  %44 = getelementptr inbounds [2 x i32], ptr %43, i64 0, i64 1
  %45 = load i32, ptr %44, align 4, !tbaa !79
  %46 = call i32 @Abc_MinInt(i32 noundef %42, i32 noundef %45)
  %47 = getelementptr inbounds [2 x [2 x i32]], ptr %5, i64 0, i64 1
  %48 = getelementptr inbounds [2 x i32], ptr %47, i64 0, i64 0
  %49 = load i32, ptr %48, align 8, !tbaa !79
  %50 = getelementptr inbounds [2 x [2 x i32]], ptr %5, i64 0, i64 1
  %51 = getelementptr inbounds [2 x i32], ptr %50, i64 0, i64 1
  %52 = load i32, ptr %51, align 4, !tbaa !79
  %53 = call i32 @Abc_MinInt(i32 noundef %49, i32 noundef %52)
  %54 = add nsw i32 %46, %53
  store i32 %54, ptr %9, align 4, !tbaa !79
  %55 = load i32, ptr %8, align 4, !tbaa !79
  %56 = load i32, ptr %9, align 4, !tbaa !79
  %57 = icmp sgt i32 %55, %56
  br i1 %57, label %58, label %61

58:                                               ; preds = %39
  %59 = load i32, ptr %9, align 4, !tbaa !79
  store i32 %59, ptr %8, align 4, !tbaa !79
  %60 = load i32, ptr %6, align 4, !tbaa !79
  store i32 %60, ptr %7, align 4, !tbaa !79
  br label %61

61:                                               ; preds = %58, %39
  br label %62

62:                                               ; preds = %61, %38
  %63 = load i32, ptr %6, align 4, !tbaa !79
  %64 = add nsw i32 %63, 1
  store i32 %64, ptr %6, align 4, !tbaa !79
  br label %10, !llvm.loop !137

65:                                               ; preds = %10
  %66 = load i32, ptr %7, align 4, !tbaa !79
  call void @llvm.lifetime.end.p0(i64 4, ptr %9) #12
  call void @llvm.lifetime.end.p0(i64 4, ptr %8) #12
  call void @llvm.lifetime.end.p0(i64 4, ptr %7) #12
  call void @llvm.lifetime.end.p0(i64 4, ptr %6) #12
  call void @llvm.lifetime.end.p0(i64 16, ptr %5) #12
  ret i32 %66
}