; Function Attrs: nofree norecurse nosync nounwind memory(read, argmem: readwrite, inaccessiblemem: none) uwtable
define i32 @Sfm_DecFindBestVar2(ptr noundef readonly captures(none) %0, ptr noundef readonly captures(none) %1) local_unnamed_addr #9 {
  %3 = alloca [2 x [2 x i32]], align 16
  call void @llvm.lifetime.start.p0(i64 16, ptr nonnull %3) #25
  %4 = getelementptr inbounds nuw i8, ptr %0, i64 152
  %5 = load i32, ptr %4, align 8, !tbaa !105
  %6 = icmp sgt i32 %5, 0
  br i1 %6, label %.lr.ph, label %._crit_edge

.lr.ph:                                           ; preds = %2
  %7 = getelementptr inbounds nuw i8, ptr %3, i64 4
  %8 = getelementptr inbounds nuw i8, ptr %3, i64 8
  %9 = getelementptr inbounds nuw i8, ptr %3, i64 12
  br label %10

10:                                               ; preds = %.lr.ph, %23
  %.017 = phi i32 [ 0, %.lr.ph ], [ %24, %23 ]
  %.01016 = phi i32 [ 1000000000, %.lr.ph ], [ %.1, %23 ]
  %.01115 = phi i32 [ -1, %.lr.ph ], [ %.112, %23 ]
  call void @Sfm_DecVarCost(ptr noundef nonnull %0, ptr noundef %1, i32 noundef %.017, ptr noundef nonnull %3)
  %11 = load i32, ptr %3, align 16, !tbaa !96
  %12 = load i32, ptr %7, align 4, !tbaa !96
  %13 = icmp slt i32 %11, %12
  %14 = load i32, ptr %8, align 8, !tbaa !96
  %15 = load i32, ptr %9, align 4, !tbaa !96
  %16 = icmp sge i32 %14, %15
  %17 = xor i1 %13, %16
  br i1 %17, label %23, label %18

18:                                               ; preds = %10
  %19 = tail call noundef i32 @llvm.smin.i32(i32 %11, i32 %12)
  %20 = tail call noundef i32 @llvm.smin.i32(i32 %14, i32 %15)
  %21 = add nsw i32 %20, %19
  %22 = icmp sgt i32 %.01016, %21
  %spec.select = select i1 %22, i32 %.017, i32 %.01115
  %spec.select14 = tail call i32 @llvm.smin.i32(i32 %.01016, i32 %21)
  br label %23

23:                                               ; preds = %18, %10
  %.112 = phi i32 [ %.01115, %10 ], [ %spec.select, %18 ]
  %.1 = phi i32 [ %.01016, %10 ], [ %spec.select14, %18 ]
  %24 = add nuw nsw i32 %.017, 1
  %exitcond.not = icmp eq i32 %24, %5
  br i1 %exitcond.not, label %._crit_edge, label %10, !llvm.loop !115

._crit_edge:                                      ; preds = %23, %2
  %.011.lcssa = phi i32 [ -1, %2 ], [ %.112, %23 ]
  call void @llvm.lifetime.end.p0(i64 16, ptr nonnull %3) #25
  ret i32 %.011.lcssa
}